; Function Attrs: mustprogress nofree norecurse nosync nounwind willreturn memory(read, inaccessiblemem: none) uwtable
define noundef i32 @_ZN6icu_7714countCharacterERKNS_10CharStringEc(ptr noundef nonnull readonly align 8 captures(none) dereferenceable(60) %0, i8 noundef signext %1) local_unnamed_addr #13 {
  %3 = getelementptr inbounds nuw i8, ptr %0, i64 56
  %4 = load i32, ptr %3, align 8, !tbaa !15
  %5 = icmp sgt i32 %4, 0
  br i1 %5, label %.lr.ph, label %._crit_edge

.lr.ph:                                           ; preds = %2
  %6 = load ptr, ptr %0, align 8, !tbaa !3
  %wide.trip.count = zext nneg i32 %4 to i64
  br label %7

._crit_edge:                                      ; preds = %7, %2
  %.0.lcssa = phi i32 [ 0, %2 ], [ %spec.select, %7 ]
  ret i32 %.0.lcssa

7:                                                ; preds = %.lr.ph, %7
  %indvars.iv = phi i64 [ 0, %.lr.ph ], [ %indvars.iv.next, %7 ]
  %.010 = phi i32 [ 0, %.lr.ph ], [ %spec.select, %7 ]
  %8 = getelementptr inbounds nuw i8, ptr %6, i64 %indvars.iv
  %9 = load i8, ptr %8, align 1, !tbaa !17
  %10 = icmp eq i8 %9, %1
  %11 = zext i1 %10 to i32
  %spec.select = add nuw nsw i32 %.010, %11
  %indvars.iv.next = add nuw nsw i64 %indvars.iv, 1
  %exitcond.not = icmp eq i64 %indvars.iv.next, %wide.trip.count
  br i1 %exitcond.not, label %._crit_edge, label %7, !llvm.loop !118
}